; Function Attrs: mustprogress uwtable
define noundef double @_ZN3gmx22ComputeDebyeScattering13getFormFactorEiid(ptr noundef nonnull align 8 dereferenceable(153) %0, i32 noundef %1, i32 noundef %2, double noundef %3) local_unnamed_addr #0 align 2 {
  %5 = load ptr, ptr %0, align 8
  %6 = getelementptr inbounds i8, ptr %5, i64 16
  %7 = load ptr, ptr %6, align 8
  %8 = tail call noundef double %7(ptr noundef nonnull align 8 dereferenceable(153) %0, i32 noundef %1, double noundef %3)
  %9 = load ptr, ptr %0, align 8
  %10 = getelementptr inbounds i8, ptr %9, i64 16
  %11 = load ptr, ptr %10, align 8
  %12 = tail call noundef double %11(ptr noundef nonnull align 8 dereferenceable(153) %0, i32 noundef %2, double noundef %3)
  %13 = fmul double %8, %12
  ret double %13
}